target datalayout = "e-m:e-p270:32:32-p271:32:32-p272:64:64-i64:64-i128:128-f80:128-n8:16:32:64-S128"
target triple = "x86_64-pc-linux-gnu"

%struct.evthread_lock_callbacks = type { i32, i32, ptr, ptr, ptr, ptr }
%struct.evbuffer_chain = type { ptr, i64, i64, i64, i32, i32, ptr }
%struct.evbuffer = type { ptr, ptr, ptr, i64, i64, i64, i64, ptr, i8, i32, ptr, i32, %struct.event_callback, %struct.evbuffer_cb_queue, ptr }
%struct.event_callback = type { %struct.anon, i16, i8, i8, %union.anon, ptr }
%struct.anon = type { ptr, ptr }
%union.anon = type { ptr }
%struct.evbuffer_cb_queue = type { ptr }
%struct.evbuffer_cb_entry = type { %struct.anon.1, %union.anon.2, ptr, i32 }
%struct.anon.1 = type { ptr, ptr }
%union.anon.2 = type { ptr }

@evthread_lock_fns_ = external global %struct.evthread_lock_callbacks, align 8
@evthread_lock_debugging_enabled_ = external global i32, align 4

; Function Attrs: nounwind uwtable
define internal void @evbuffer_remove_all_callbacks(ptr noundef %0) #0 {
  %2 = alloca ptr, align 8
  %3 = alloca ptr, align 8
  store ptr %0, ptr %2, align 8
  call void @llvm.lifetime.start.p0(i64 8, ptr %3) #10
  br label %4

4:                                                ; preds = %38, %1
  %5 = load ptr, ptr %2, align 8
  %6 = getelementptr inbounds nuw %struct.evbuffer, ptr %5, i32 0, i32 13
  %7 = getelementptr inbounds nuw %struct.evbuffer_cb_queue, ptr %6, i32 0, i32 0
  %8 = load ptr, ptr %7, align 8
  store ptr %8, ptr %3, align 8
  %9 = icmp ne ptr %8, null
  br i1 %9, label %10, label %40

10:                                               ; preds = %4
  br label %11

11:                                               ; preds = %10
  %12 = load ptr, ptr %3, align 8
  %13 = getelementptr inbounds nuw %struct.evbuffer_cb_entry, ptr %12, i32 0, i32 0
  %14 = getelementptr inbounds nuw %struct.anon.1, ptr %13, i32 0, i32 0
  %15 = load ptr, ptr %14, align 8
  %16 = icmp ne ptr %15, null
  br i1 %16, label %17, label %28

17:                                               ; preds = %11
  %18 = load ptr, ptr %3, align 8
  %19 = getelementptr inbounds nuw %struct.evbuffer_cb_entry, ptr %18, i32 0, i32 0
  %20 = getelementptr inbounds nuw %struct.anon.1, ptr %19, i32 0, i32 1
  %21 = load ptr, ptr %20, align 8
  %22 = load ptr, ptr %3, align 8
  %23 = getelementptr inbounds nuw %struct.evbuffer_cb_entry, ptr %22, i32 0, i32 0
  %24 = getelementptr inbounds nuw %struct.anon.1, ptr %23, i32 0, i32 0
  %25 = load ptr, ptr %24, align 8
  %26 = getelementptr inbounds nuw %struct.evbuffer_cb_entry, ptr %25, i32 0, i32 0
  %27 = getelementptr inbounds nuw %struct.anon.1, ptr %26, i32 0, i32 1
  store ptr %21, ptr %27, align 8
  br label %28

28:                                               ; preds = %17, %11
  %29 = load ptr, ptr %3, align 8
  %30 = getelementptr inbounds nuw %struct.evbuffer_cb_entry, ptr %29, i32 0, i32 0
  %31 = getelementptr inbounds nuw %struct.anon.1, ptr %30, i32 0, i32 0
  %32 = load ptr, ptr %31, align 8
  %33 = load ptr, ptr %3, align 8
  %34 = getelementptr inbounds nuw %struct.evbuffer_cb_entry, ptr %33, i32 0, i32 0
  %35 = getelementptr inbounds nuw %struct.anon.1, ptr %34, i32 0, i32 1
  %36 = load ptr, ptr %35, align 8
  store ptr %32, ptr %36, align 8
  br label %37

37:                                               ; preds = %28
  br label %38

38:                                               ; preds = %37
  %39 = load ptr, ptr %3, align 8
  call void @event_mm_free_(ptr noundef %39)
  br label %4, !llvm.loop !6

40:                                               ; preds = %4
  call void @llvm.lifetime.end.p0(i64 8, ptr %3) #10
  ret void
}

; Function Attrs: nounwind uwtable
define hidden void @evbuffer_decref_and_unlock_(ptr noundef %0) #0 {
  %2 = alloca ptr, align 8
  %3 = alloca ptr, align 8
  %4 = alloca ptr, align 8
  %5 = alloca i32, align 4
  %6 = alloca ptr, align 8
  store ptr %0, ptr %2, align 8
  call void @llvm.lifetime.start.p0(i64 8, ptr %3) #10
  call void @llvm.lifetime.start.p0(i64 8, ptr %4) #10
  br label %7

7:                                                ; preds = %1
  %8 = load ptr, ptr %2, align 8
  %9 = getelementptr inbounds nuw %struct.evbuffer, ptr %8, i32 0, i32 7
  %10 = load ptr, ptr %9, align 8
  %11 = icmp ne ptr %10, null
  br i1 %11, label %12, label %19

12:                                               ; preds = %7
  %13 = load i32, ptr @evthread_lock_debugging_enabled_, align 4
  %14 = icmp ne i32 %13, 0
  br i1 %14, label %15, label %19

15:                                               ; preds = %12
  br label %16

16:                                               ; preds = %15
  br label %17

17:                                               ; preds = %16
  br label %18

18:                                               ; preds = %17
  br label %19

19:                                               ; preds = %18, %12, %7
  br label %20

20:                                               ; preds = %19
  br label %21

21:                                               ; preds = %20
  br label %22

22:                                               ; preds = %21
  br label %23

23:                                               ; preds = %22
  br label %24

24:                                               ; preds = %23
  %25 = load ptr, ptr %2, align 8
  %26 = getelementptr inbounds nuw %struct.evbuffer, ptr %25, i32 0, i32 11
  %27 = load i32, ptr %26, align 8
  %28 = add nsw i32 %27, -1
  store i32 %28, ptr %26, align 8
  %29 = icmp sgt i32 %28, 0
  br i1 %29, label %30, label %48

30:                                               ; preds = %24
  br label %31

31:                                               ; preds = %30
  br label %32

32:                                               ; preds = %31
  %33 = load ptr, ptr %2, align 8
  %34 = getelementptr inbounds nuw %struct.evbuffer, ptr %33, i32 0, i32 7
  %35 = load ptr, ptr %34, align 8
  %36 = icmp ne ptr %35, null
  br i1 %36, label %37, label %43

37:                                               ; preds = %32
  %38 = load ptr, ptr getelementptr inbounds nuw (%struct.evthread_lock_callbacks, ptr @evthread_lock_fns_, i32 0, i32 5), align 8
  %39 = load ptr, ptr %2, align 8
  %40 = getelementptr inbounds nuw %struct.evbuffer, ptr %39, i32 0, i32 7
  %41 = load ptr, ptr %40, align 8
  %42 = call i32 %38(i32 noundef 0, ptr noundef %41)
  br label %43

43:                                               ; preds = %37, %32
  br label %44

44:                                               ; preds = %43
  br label %45

45:                                               ; preds = %44
  br label %46

46:                                               ; preds = %45
  br label %47

47:                                               ; preds = %46
  store i32 1, ptr %5, align 4
  br label %119

48:                                               ; preds = %24
  %49 = load ptr, ptr %2, align 8
  %50 = getelementptr inbounds nuw %struct.evbuffer, ptr %49, i32 0, i32 0
  %51 = load ptr, ptr %50, align 8
  store ptr %51, ptr %3, align 8
  br label %52

52:                                               ; preds = %60, %48
  %53 = load ptr, ptr %3, align 8
  %54 = icmp ne ptr %53, null
  br i1 %54, label %55, label %62

55:                                               ; preds = %52
  %56 = load ptr, ptr %3, align 8
  %57 = getelementptr inbounds nuw %struct.evbuffer_chain, ptr %56, i32 0, i32 0
  %58 = load ptr, ptr %57, align 8
  store ptr %58, ptr %4, align 8
  %59 = load ptr, ptr %3, align 8
  call void @evbuffer_chain_free(ptr noundef %59)
  br label %60

60:                                               ; preds = %55
  %61 = load ptr, ptr %4, align 8
  store ptr %61, ptr %3, align 8
  br label %52, !llvm.loop !5

62:                                               ; preds = %52
  %63 = load ptr, ptr %2, align 8
  call void @evbuffer_remove_all_callbacks(ptr noundef %63)
  %64 = load ptr, ptr %2, align 8
  %65 = getelementptr inbounds nuw %struct.evbuffer, ptr %64, i32 0, i32 8
  %66 = load i8, ptr %65, align 8
  %67 = lshr i8 %66, 3
  %68 = and i8 %67, 1
  %69 = zext i8 %68 to i32
  %70 = icmp ne i32 %69, 0
  br i1 %70, label %71, label %77

71:                                               ; preds = %62
  %72 = load ptr, ptr %2, align 8
  %73 = getelementptr inbounds nuw %struct.evbuffer, ptr %72, i32 0, i32 10
  %74 = load ptr, ptr %73, align 8
  %75 = load ptr, ptr %2, align 8
  %76 = getelementptr inbounds nuw %struct.evbuffer, ptr %75, i32 0, i32 12
  call void @event_deferred_cb_cancel_(ptr noundef %74, ptr noundef %76)
  br label %77

77:                                               ; preds = %71, %62
  br label %78

78:                                               ; preds = %77
  br label %79

79:                                               ; preds = %78
  %80 = load ptr, ptr %2, align 8
  %81 = getelementptr inbounds nuw %struct.evbuffer, ptr %80, i32 0, i32 7
  %82 = load ptr, ptr %81, align 8
  %83 = icmp ne ptr %82, null
  br i1 %83, label %84, label %90

84:                                               ; preds = %79
  %85 = load ptr, ptr getelementptr inbounds nuw (%struct.evthread_lock_callbacks, ptr @evthread_lock_fns_, i32 0, i32 5), align 8
  %86 = load ptr, ptr %2, align 8
  %87 = getelementptr inbounds nuw %struct.evbuffer, ptr %86, i32 0, i32 7
  %88 = load ptr, ptr %87, align 8
  %89 = call i32 %85(i32 noundef 0, ptr noundef %88)
  br label %90

90:                                               ; preds = %84, %79
  br label %91

91:                                               ; preds = %90
  br label %92

92:                                               ; preds = %91
  br label %93

93:                                               ; preds = %92
  br label %94

94:                                               ; preds = %93
  %95 = load ptr, ptr %2, align 8
  %96 = getelementptr inbounds nuw %struct.evbuffer, ptr %95, i32 0, i32 8
  %97 = load i8, ptr %96, align 8
  %98 = and i8 %97, 1
  %99 = zext i8 %98 to i32
  %100 = icmp ne i32 %99, 0
  br i1 %100, label %101, label %117

101:                                              ; preds = %94
  br label %102

102:                                              ; preds = %101
  call void @llvm.lifetime.start.p0(i64 8, ptr %6) #10
  %103 = load ptr, ptr %2, align 8
  %104 = getelementptr inbounds nuw %struct.evbuffer, ptr %103, i32 0, i32 7
  %105 = load ptr, ptr %104, align 8
  store ptr %105, ptr %6, align 8
  %106 = load ptr, ptr %6, align 8
  %107 = icmp ne ptr %106, null
  br i1 %107, label %108, label %114

108:                                              ; preds = %102
  %109 = load ptr, ptr getelementptr inbounds nuw (%struct.evthread_lock_callbacks, ptr @evthread_lock_fns_, i32 0, i32 3), align 8
  %110 = icmp ne ptr %109, null
  br i1 %110, label %111, label %114

111:                                              ; preds = %108
  %112 = load ptr, ptr getelementptr inbounds nuw (%struct.evthread_lock_callbacks, ptr @evthread_lock_fns_, i32 0, i32 3), align 8
  %113 = load ptr, ptr %6, align 8
  call void %112(ptr noundef %113, i32 noundef 1)
  br label %114

114:                                              ; preds = %111, %108, %102
  call void @llvm.lifetime.end.p0(i64 8, ptr %6) #10
  br label %115

115:                                              ; preds = %114
  br label %116

116:                                              ; preds = %115
  br label %117

117:                                              ; preds = %116, %94
  %118 = load ptr, ptr %2, align 8
  call void @event_mm_free_(ptr noundef %118)
  store i32 0, ptr %5, align 4
  br label %119

119:                                              ; preds = %117, %47
  call void @llvm.lifetime.end.p0(i64 8, ptr %4) #10
  call void @llvm.lifetime.end.p0(i64 8, ptr %3) #10
  %120 = load i32, ptr %5, align 4
  switch i32 %120, label %122 [
    i32 0, label %121
    i32 1, label %121
  ]

121:                                              ; preds = %119, %119
  ret void

122:                                              ; preds = %119
  unreachable
}