; Function Attrs: nounwind uwtable
define hidden void @evbuffer_decref_and_unlock_(ptr noundef %0) local_unnamed_addr #1 {
  %2 = getelementptr inbounds nuw i8, ptr %0, i64 56
  %3 = getelementptr inbounds nuw i8, ptr %0, i64 80
  %4 = load i32, ptr %3, align 8
  %5 = add nsw i32 %4, -1
  store i32 %5, ptr %3, align 8
  %6 = icmp sgt i32 %4, 1
  br i1 %6, label %7, label %12

7:                                                ; preds = %1
  %8 = load ptr, ptr %2, align 8
  %.not30 = icmp eq ptr %8, null
  br i1 %.not30, label %45, label %9

9:                                                ; preds = %7
  %10 = load ptr, ptr getelementptr inbounds nuw (i8, ptr @evthread_lock_fns_, i64 32), align 8
  %11 = tail call i32 %10(i32 noundef 0, ptr noundef nonnull %8) #16
  br label %45

12:                                               ; preds = %1
  %13 = load ptr, ptr %0, align 8
  %.not31 = icmp eq ptr %13, null
  br i1 %.not31, label %._crit_edge, label %.lr.ph

.lr.ph:                                           ; preds = %12, %.lr.ph
  %.032 = phi ptr [ %14, %.lr.ph ], [ %13, %12 ]
  %14 = load ptr, ptr %.032, align 8
  tail call fastcc void @evbuffer_chain_free(ptr noundef nonnull %.032)
  %.not = icmp eq ptr %14, null
  br i1 %.not, label %._crit_edge, label %.lr.ph, !llvm.loop !5

._crit_edge:                                      ; preds = %.lr.ph, %12
  %15 = getelementptr inbounds nuw i8, ptr %0, i64 128
  %16 = load ptr, ptr %15, align 8
  %.not9.i = icmp eq ptr %16, null
  br i1 %.not9.i, label %evbuffer_remove_all_callbacks.exit, label %.lr.ph.i

.lr.ph.i:                                         ; preds = %._crit_edge, %.lr.ph._crit_edge.i
  %17 = phi ptr [ %22, %.lr.ph._crit_edge.i ], [ %16, %._crit_edge ]
  %18 = load ptr, ptr %17, align 8
  %.not8.i = icmp eq ptr %18, null
  %.phi.trans.insert.i = getelementptr inbounds nuw i8, ptr %17, i64 8
  %.pre10.i = load ptr, ptr %.phi.trans.insert.i, align 8
  br i1 %.not8.i, label %.lr.ph._crit_edge.i, label %19

19:                                               ; preds = %.lr.ph.i
  %20 = getelementptr inbounds nuw i8, ptr %18, i64 8
  store ptr %.pre10.i, ptr %20, align 8
  %.pre.i = load ptr, ptr %17, align 8
  br label %.lr.ph._crit_edge.i

.lr.ph._crit_edge.i:                              ; preds = %19, %.lr.ph.i
  %21 = phi ptr [ %.pre.i, %19 ], [ null, %.lr.ph.i ]
  store ptr %21, ptr %.pre10.i, align 8
  tail call void @event_mm_free_(ptr noundef nonnull %17) #16
  %22 = load ptr, ptr %15, align 8
  %.not.i = icmp eq ptr %22, null
  br i1 %.not.i, label %evbuffer_remove_all_callbacks.exit, label %.lr.ph.i, !llvm.loop !6

evbuffer_remove_all_callbacks.exit:               ; preds = %.lr.ph._crit_edge.i, %._crit_edge
  %23 = getelementptr inbounds nuw i8, ptr %0, i64 64
  %24 = load i8, ptr %23, align 8
  %25 = and i8 %24, 8
  %.not27 = icmp eq i8 %25, 0
  br i1 %.not27, label %30, label %26

26:                                               ; preds = %evbuffer_remove_all_callbacks.exit
  %27 = getelementptr inbounds nuw i8, ptr %0, i64 72
  %28 = load ptr, ptr %27, align 8
  %29 = getelementptr inbounds nuw i8, ptr %0, i64 88
  tail call void @event_deferred_cb_cancel_(ptr noundef %28, ptr noundef nonnull %29) #16
  br label %30

30:                                               ; preds = %26, %evbuffer_remove_all_callbacks.exit
  %31 = load ptr, ptr %2, align 8
  %.not28 = icmp eq ptr %31, null
  br i1 %.not28, label %35, label %32

32:                                               ; preds = %30
  %33 = load ptr, ptr getelementptr inbounds nuw (i8, ptr @evthread_lock_fns_, i64 32), align 8
  %34 = tail call i32 %33(i32 noundef 0, ptr noundef nonnull %31) #16
  br label %35

35:                                               ; preds = %32, %30
  %36 = load i8, ptr %23, align 8
  %37 = and i8 %36, 1
  %.not29 = icmp eq i8 %37, 0
  br i1 %.not29, label %44, label %38

38:                                               ; preds = %35
  %39 = load ptr, ptr %2, align 8
  %40 = icmp ne ptr %39, null
  %41 = load ptr, ptr getelementptr inbounds nuw (i8, ptr @evthread_lock_fns_, i64 16), align 8
  %42 = icmp ne ptr %41, null
  %or.cond3 = select i1 %40, i1 %42, i1 false
  br i1 %or.cond3, label %43, label %44

43:                                               ; preds = %38
  tail call void %41(ptr noundef nonnull %39, i32 noundef 1) #16
  br label %44

44:                                               ; preds = %38, %43, %35
  tail call void @event_mm_free_(ptr noundef nonnull %0) #16
  br label %45

45:                                               ; preds = %7, %9, %44
  ret void
}